target datalayout = "e-m:e-p270:32:32-p271:32:32-p272:64:64-i64:64-i128:128-f80:128-n8:16:32:64-S128"
target triple = "x86_64-pc-linux-gnu"

@.str = private unnamed_addr constant [28 x i8] c"%swolfCrypt_Init failed %d\0A\00", align 1
@err_prefix = internal constant [1 x i8] zeroinitializer, align 1
@.str.1 = private unnamed_addr constant [59 x i8] c"%swolfCrypt Benchmark (block bytes %d, min %.*f sec each)\0A\00", align 1
@info_prefix = internal constant [1 x i8] zeroinitializer, align 1
@bench_size = internal global i32 1048576, align 4
@csv_format = internal global i32 0, align 4
@.str.2 = private unnamed_addr constant [64 x i8] c"This format allows you to easily copy the output to a csv file.\00", align 1
@numBlocks = internal global i32 5, align 4
@aesAuthAddSz = internal global i32 13, align 4
@digest_stream = internal global i32 1, align 4
@bench_all = internal global i32 1, align 4
@bench_asym_algs = internal global i32 0, align 4
@base2 = internal global i32 1, align 4
@aes_aad_options = internal global i32 1, align 4
@aes_aad_size = internal global i32 0, align 4
@bench_cipher_algs = internal global i32 0, align 4
@bench_digest_algs = internal global i32 0, align 4
@bench_mac_algs = internal global i32 0, align 4
@bench_kdf_algs = internal global i32 0, align 4
@bench_other_algs = internal global i32 0, align 4
@benchmark_static_init.gBenchStaticInit = internal global i32 0, align 4
@bench_pq_asym_algs = internal global i32 0, align 4
@bench_pq_hash_sig_algs = internal global i32 0, align 4

; Function Attrs: inlinehint nounwind uwtable
define internal void @bench_stats_init() #3 {
  ret void
}

; Function Attrs: nounwind uwtable
define internal void @benchmark_static_init(i32 noundef %0) #0 {
  %2 = alloca i32, align 4
  store i32 %0, ptr %2, align 4, !tbaa !4
  %3 = load i32, ptr @benchmark_static_init.gBenchStaticInit, align 4, !tbaa !4
  %4 = icmp eq i32 %3, 0
  br i1 %4, label %8, label %5

5:                                                ; preds = %1
  %6 = load i32, ptr %2, align 4, !tbaa !4
  %7 = icmp ne i32 %6, 0
  br i1 %7, label %8, label %9

8:                                                ; preds = %5, %1
  store i32 1, ptr @benchmark_static_init.gBenchStaticInit, align 4, !tbaa !4
  store i32 5, ptr @numBlocks, align 4, !tbaa !4
  store i32 1048576, ptr @bench_size, align 4, !tbaa !4
  store i32 13, ptr @aesAuthAddSz, align 4, !tbaa !4
  store i32 1, ptr @aes_aad_options, align 4, !tbaa !4
  store i32 0, ptr @aes_aad_size, align 4, !tbaa !4
  store i32 1, ptr @base2, align 4, !tbaa !4
  store i32 1, ptr @digest_stream, align 4, !tbaa !4
  store i32 1, ptr @bench_all, align 4, !tbaa !4
  store i32 0, ptr @bench_cipher_algs, align 4, !tbaa !4
  store i32 0, ptr @bench_digest_algs, align 4, !tbaa !4
  store i32 0, ptr @bench_mac_algs, align 4, !tbaa !4
  store i32 0, ptr @bench_kdf_algs, align 4, !tbaa !4
  store i32 0, ptr @bench_asym_algs, align 4, !tbaa !4
  store i32 0, ptr @bench_pq_asym_algs, align 4, !tbaa !4
  store i32 0, ptr @bench_other_algs, align 4, !tbaa !4
  store i32 0, ptr @bench_pq_hash_sig_algs, align 4, !tbaa !4
  store i32 0, ptr @csv_format, align 4, !tbaa !4
  br label %9

9:                                                ; preds = %8, %5
  ret void
}

; Function Attrs: nounwind uwtable
define dso_local i32 @benchmark_init() #0 {
  %1 = alloca i32, align 4
  %2 = alloca i32, align 4
  %3 = alloca i32, align 4
  call void @llvm.lifetime.start.p0(i64 4, ptr %2) #12
  store i32 0, ptr %2, align 4, !tbaa !4
  call void @benchmark_static_init(i32 noundef 0)
  %4 = call i32 @wolfCrypt_Init()
  store i32 %4, ptr %2, align 4, !tbaa !4
  %5 = icmp ne i32 %4, 0
  br i1 %5, label %6, label %9

6:                                                ; preds = %0
  %7 = load i32, ptr %2, align 4, !tbaa !4
  %8 = call i32 (ptr, ...) @printf(ptr noundef @.str, ptr noundef @err_prefix, i32 noundef %7)
  store i32 1, ptr %1, align 4
  store i32 1, ptr %3, align 4
  br label %18

9:                                                ; preds = %0
  call void @bench_stats_init()
  %10 = load i32, ptr @bench_size, align 4, !tbaa !4
  %11 = call i32 (ptr, ...) @printf(ptr noundef @.str.1, ptr noundef @info_prefix, i32 noundef %10, i32 noundef 1, double noundef 1.000000e+00)
  %12 = load i32, ptr @csv_format, align 4, !tbaa !4
  %13 = icmp eq i32 %12, 1
  br i1 %13, label %14, label %16

14:                                               ; preds = %9
  %15 = call i32 (ptr, ...) @printf(ptr noundef @.str.2)
  br label %16

16:                                               ; preds = %14, %9
  %17 = load i32, ptr %2, align 4, !tbaa !4
  store i32 %17, ptr %1, align 4
  store i32 1, ptr %3, align 4
  br label %18

18:                                               ; preds = %16, %6
  call void @llvm.lifetime.end.p0(i64 4, ptr %2) #12
  %19 = load i32, ptr %1, align 4
  ret i32 %19
}