; Function Attrs: nounwind uwtable
define dso_local range(i32 0, 2) i32 @benchmark_init() local_unnamed_addr #0 {
  %.b.i = load i1, ptr @benchmark_static_init.gBenchStaticInit, align 4
  br i1 %.b.i, label %benchmark_static_init.exit, label %1

1:                                                ; preds = %0
  store i1 true, ptr @benchmark_static_init.gBenchStaticInit, align 4
  store i32 5, ptr @numBlocks, align 4, !tbaa !4
  store i32 1048576, ptr @bench_size, align 4, !tbaa !4
  store i32 13, ptr @aesAuthAddSz, align 4, !tbaa !4
  store i32 1, ptr @aes_aad_options, align 4, !tbaa !4
  store i32 0, ptr @aes_aad_size, align 4, !tbaa !4
  store i1 false, ptr @base2, align 4
  store i1 false, ptr @digest_stream, align 4
  store i1 false, ptr @bench_all, align 4
  store i32 0, ptr @bench_cipher_algs, align 4, !tbaa !4
  store i32 0, ptr @bench_digest_algs, align 4, !tbaa !4
  store i32 0, ptr @bench_mac_algs, align 4, !tbaa !4
  store i32 0, ptr @bench_kdf_algs, align 4, !tbaa !4
  store i32 0, ptr @bench_asym_algs, align 4, !tbaa !4
  store i32 0, ptr @bench_other_algs, align 4, !tbaa !4
  store i1 false, ptr @csv_format, align 4
  br label %benchmark_static_init.exit

benchmark_static_init.exit:                       ; preds = %0, %1
  %2 = tail call i32 @wolfCrypt_Init() #16
  %.not = icmp eq i32 %2, 0
  br i1 %.not, label %5, label %3

3:                                                ; preds = %benchmark_static_init.exit
  %4 = tail call i32 (ptr, ...) @printf(ptr noundef nonnull dereferenceable(1) @.str, ptr noundef nonnull @.str.113, i32 noundef %2)
  br label %10

5:                                                ; preds = %benchmark_static_init.exit
  %6 = load i32, ptr @bench_size, align 4, !tbaa !4
  %7 = tail call i32 (ptr, ...) @printf(ptr noundef nonnull dereferenceable(1) @.str.1, ptr noundef nonnull @info_prefix, i32 noundef %6, i32 noundef 1, double noundef 1.000000e+00)
  %.b = load i1, ptr @csv_format, align 4
  br i1 %.b, label %8, label %10

8:                                                ; preds = %5
  %9 = tail call i32 (ptr, ...) @printf(ptr noundef nonnull dereferenceable(1) @.str.2)
  br label %10

10:                                               ; preds = %5, %8, %3
  %.0 = phi i32 [ 1, %3 ], [ 0, %8 ], [ 0, %5 ]
  ret i32 %.0
}